ccollections
OrderedDict
p0
((lp1
(lp2
S'bass3'
p3
a(lp4
S'lowLevel.scvalleys.max.0'
p5
aS'temporal.effective_duration'
p6
aS'tonal.hpcp.dvar2.33'
p7
aS'lowLevel.spectral_energyband_low.mean'
p8
aaa(lp9
S'guitar5'
p10
a(lp11
S'dynamic.rms.dvar'
p12
aS'lowLevel.spectral_energyband_middle_low.dvar2'
p13
aS'dynamic.loudness.dvar2'
p14
aS'lowLevel.spectral_energyband_middle_low.dmean'
p15
aS'lowLevel.scvalleys.max.0'
p16
aS'dynamic.loudness.dmean2'
p17
aaa(lp18
S'vocal2'
p19
a(lp20
S'dynamic.larm.dvar'
p21
aS'lowLevel.sccoeffs.stdev.1'
p22
aS'lowLevel.pitch_salience.dmean'
p23
aS'lowLevel.pitch_salience.dmean2'
p24
aaa(lp25
S'keys-all3'
p26
a(lp27
S'lowLevel.spectral_energyband_middle_low.var'
p28
aS'lowLevel.spectral_energy.max'
p29
aS'dynamic.loudness_vickers.max'
p30
aS'lowLevel.barkbands.max.5'
p31
aaatp32
Rp33
.