ccollections
OrderedDict
p0
((lp1
(lp2
S'keys2'
p3
a(lp4
I29
aI802
aI1047
aI939
aI41
aI1351
aI687
aI77
aI1127
aI53
aI1502
aI1126
aI10
aI74
aI560
aI22
aI138
aI23
aI938
aI72
aaa(lp5
S'keys-all2'
p6
a(lp7
I939
aI1047
aI29
aI53
aI77
aI41
aI65
aI987
aI332
aI992
aI215
aI697
aI216
aI1351
aI993
aI351
aaa(lp8
S'vocal2'
p9
a(lp10
I749
aI743
aI26
aI763
aI27
aI670
aI671
aI823
aI516
aI1801
aI775
aI1653
aI455
aI480
aaa(lp11
S'keys1'
p12
a(lp13
I29
aI1047
aI939
aI802
aI1127
aI1351
aI41
aI53
aI1043
aI1126
aI77
aI687
aI1502
aI705
aI11
aaa(lp14
S'guitar2'
p15
a(lp16
I987
aI985
aI74
aI784
aI133
aI937
aI214
aI983
aI982
aI51
aI1029
aI106
aI931
aI33
aI49
aI350
aI75
aI992
aI1028
aaa(lp17
S'keys5'
p18
a(lp19
I29
aI939
aI1047
aI1351
aI802
aI53
aI1126
aI41
aI1502
aI77
aI1127
aI1136
aI693
aI111
aI74
aI1023
aI1043
aI75
aaa(lp20
S'keys4'
p21
a(lp22
I29
aI1047
aI939
aI802
aI41
aI53
aI1351
aI77
aI1126
aI705
aI687
aI699
aI74
aI735
aI22
aI693
aI11
aI620
aI1486
aI804
aI1023
aI1502
aI267
aI64
aaa(lp23
S'bass1'
p24
a(lp25
I1491
aI1348
aI1349
aI329
aI1455
aI784
aI205
aaa(lp26
S'keys-all5'
p27
a(lp28
I1047
aI939
aI29
aI77
aI41
aI53
aI987
aI65
aI332
aI993
aI215
aI1351
aI992
aI351
aI1126
aI1131
aI89
aI116
aI866
aI486
aI1328
aaa(lp29
S'guitar1'
p30
a(lp31
I985
aI987
aI74
aI51
aI982
aI983
aI1020
aI784
aI133
aI75
aI931
aI937
aI988
aI936
aI49
aI992
aI1028
aI939
aI72
aI959
aI124
aI213
aaa(lp32
S'bass5'
p33
a(lp34
I1348
aI1491
aI1349
aI205
aI1455
aI329
aI1350
aI730
aI1026
aI1133
aI1229
aI805
aI651
aaa(lp35
S'keys-all4'
p36
a(lp37
I1047
aI939
aI29
aI77
aI53
aI41
aI987
aI65
aI1351
aI332
aI992
aI215
aI1043
aI138
aI111
aaa(lp38
S'keys3'
p39
a(lp40
I29
aI802
aI939
aI1047
aI41
aI77
aI53
aI10
aI74
aI699
aI687
aI1502
aI1127
aI1351
aI1682
aI1450
aI75
aI988
aI1486
aI1023
aI1131
aI72
aI1126
aI1043
aI7
aI1445
aI792
aI428
aaa(lp41
S'guitar5'
p42
a(lp43
I985
aI987
aI74
aI51
aI982
aI784
aI50
aI931
aI1020
aI937
aI214
aI1028
aI124
aI959
aI983
aI75
aI133
aI1029
aI69
aI350
aI48
aI33
aI992
aI1018
aI936
aI49
aI72
aI106
aaa(lp44
S'bass4'
p45
a(lp46
I1348
aI1491
aI1455
aI205
aI329
aI1229
aI1350
aI552
aI1230
aaa(lp47
S'bass2'
p48
a(lp49
I1348
aI1491
aI1349
aI1455
aI205
aI1133
aI403
aI1228
aI1227
aI329
aI602
aI587
aI1136
aaa(lp50
S'guitar4'
p51
a(lp52
I987
aI985
aI74
aI51
aI1020
aI992
aI33
aI982
aI983
aI937
aI75
aI931
aI784
aI505
aI959
aI1018
aI214
aI124
aI518
aI685
aI49
aI1029
aI432
aI1092
aI1563
aI984
aI48
aaa(lp53
S'keys-all1'
p54
a(lp55
I1047
aI939
aI29
aI77
aI53
aI41
aI987
aI65
aI332
aI215
aI992
aI1351
aI993
aI351
aI1131
aI866
aI224
aaa(lp56
S'vocal1'
p57
a(lp58
I26
aI743
aI749
aI27
aI670
aI1136
aI1022
aaa(lp59
S'vocal5'
p60
a(lp61
I26
aI749
aI743
aI27
aI1128
aI1136
aI1131
aI670
aI1137
aI775
aI671
aaa(lp62
S'vocal3'
p63
a(lp64
I26
aI743
aI749
aI1137
aI459
aI1136
aI27
aI1128
aI1131
aI480
aI713
aaa(lp65
S'keys-all3'
p66
a(lp67
I939
aI29
aI1047
aI41
aI53
aI77
aI987
aI65
aI215
aI992
aI332
aI1351
aI351
aI993
aI1136
aI216
aI116
aI1459
aI89
aI1482
aI1486
aI73
aI1134
aI1146
aaa(lp68
S'bass3'
p69
a(lp70
I1348
aI1491
aI964
aI205
aI784
aI329
aI57
aaa(lp71
S'guitar3'
p72
a(lp73
I987
aI985
aI931
aI784
aI74
aI214
aI983
aI106
aI124
aI1019
aI133
aI97
aI936
aI937
aaa(lp74
S'vocal4'
p75
a(lp76
I26
aI743
aI749
aI1653
aI459
aI750
aaatp77
Rp78
.