ccollections
OrderedDict
p0
((lp1
(lp2
S'bass3'
p3
a(lp4
S'temporal.effective_duration'
p5
aS'tonal.hpcp.dvar2.33'
p6
aS'lowLevel.spectral_energyband_low.mean'
p7
aS'lowLevel.barkbands.max.2'
p8
aS'lowLevel.scvalleys.max.0'
p9
aS'lowLevel.barkbands.stdev.1'
p10
aaa(lp11
S'guitar5'
p12
a(lp13
S'lowLevel.spectral_energyband_middle_low.dvar2'
p14
aS'lowLevel.spectral_energyband_middle_low.max'
p15
aS'dynamic.rms.dvar'
p16
aS'dynamic.loudness.dvar2'
p17
aS'lowLevel.spectral_energyband_middle_low.dmean'
p18
aS'lowLevel.scvalleys.max.0'
p19
aaa(lp20
S'vocal2'
p21
a(lp22
S'lowLevel.sccoeffs.var.1'
p23
aS'lowLevel.sccoeffs.stdev.1'
p24
aS'dynamic.larm.dvar'
p25
aS'lowLevel.scvalleys.dmean2.3'
p26
aS'dynamic.larm.dvar2'
p27
aS'lowLevel.pitch_salience.dmean'
p28
aS'lowLevel.pitch_salience.dmean2'
p29
aaa(lp30
S'keys3'
p31
a(lp32
S'dynamic.larm.max'
p33
aS'lowLevel.scvalleys.min.0'
p34
aS'lowLevel.spectral_energy.max'
p35
aS'lowLevel.spectral_rms.max'
p36
aS'dynamic.leq.max'
p37
aS'dynamic.rms.max'
p38
aS'dynamic.loudness.max'
p39
aS'dynamic.dynamic_complexity.stdev'
p40
aS'dynamic.rms.dvar'
p41
aS'lowLevel.sccoeffs.dvar.5'
p42
aS'lowLevel.sccoeffs.dmean.5'
p43
aS'tonal.hpcp.kurt.10'
p44
aS'rhythm.beats_loudness.dmean2'
p45
aS'temporal.maxDerBeforeMax'
p46
aS'tonal.hpcp.skew.10'
p47
aaa(lp48
S'keys-all3'
p49
a(lp50
S'lowLevel.spectral_energy.max'
p51
aS'dynamic.larm.max'
p52
aS'lowLevel.spectral_rms.max'
p53
aS'dynamic.leq.max'
p54
aS'dynamic.loudness.max'
p55
aS'dynamic.rms.max'
p56
aS'lowLevel.spectral_energyband_middle_low.max'
p57
aS'dynamic.loudness_vickers.max'
p58
aS'lowLevel.barkbands.max.5'
p59
aS'lowLevel.spectral_energyband_middle_low.stdev'
p60
aS'lowLevel.barkbands.stdev.12'
p61
aS'temporal.maxDerBeforeMax'
p62
aS'lowLevel.barkbands.stdev.6'
p63
aS'lowLevel.spectral_energyband_middle_low.var'
p64
aaatp65
Rp66
.