ccollections
OrderedDict
p0
((lp1
(lp2
S'keys2'
p3
a(lp4
S'dynamic.larm.max'
p5
aS'lowLevel.scvalleys.min.0'
p6
aS'lowLevel.spectral_rms.max'
p7
aS'lowLevel.spectral_energy.max'
p8
aS'dynamic.leq.max'
p9
aS'temporal.maxDerBeforeMax'
p10
aS'lowLevel.sccoeffs.dmean.5'
p11
aS'dynamic.rms.max'
p12
aS'rhythm.beats_loudness.dmean2'
p13
aS'dynamic.loudness.max'
p14
aS'tonal.hpcp.kurt.10'
p15
aS'rhythm.beats_loudness.dmean'
p16
aS'dynamic.dynamic_complexity.stdev'
p17
aS'dynamic.rms.dvar'
p18
aS'lowLevel.mfcc.kurt.8'
p19
aS'dynamic.dynamic_complexity_loudness.stdev'
p20
aS'lowLevel.barkbands.dmean2.9'
p21
aS'dynamic.dynamic_complexity_loudness.var'
p22
aS'lowLevel.spectral_energy.kurt'
p23
aS'dynamic.rms.dmean'
p24
aaa(lp25
S'keys-all2'
p26
a(lp27
S'lowLevel.spectral_energy.max'
p28
aS'lowLevel.spectral_rms.max'
p29
aS'dynamic.larm.max'
p30
aS'dynamic.loudness.max'
p31
aS'dynamic.rms.max'
p32
aS'dynamic.leq.max'
p33
aS'dynamic.loudness_vickers.max'
p34
aS'lowLevel.spectral_energyband_middle_low.max'
p35
aS'lowLevel.barkbands.stdev.12'
p36
aS'lowLevel.spectral_energyband_middle_low.stdev'
p37
aS'lowLevel.barkbands.max.5'
p38
aS'lowLevel.sccoeffs.dvar.3'
p39
aS'lowLevel.barkbands.max.6'
p40
aS'temporal.maxDerBeforeMax'
p41
aS'lowLevel.spectral_energyband_middle_low.var'
p42
aS'lowLevel.barkbands.stdev.6'
p43
aaa(lp44
S'vocal2'
p45
a(lp46
S'lowLevel.sccoeffs.var.1'
p47
aS'lowLevel.sccoeffs.stdev.1'
p48
aS'dynamic.larm.dvar'
p49
aS'lowLevel.scvalleys.dmean2.3'
p50
aS'dynamic.larm.dvar2'
p51
aS'lowLevel.pitch_salience.dmean'
p52
aS'lowLevel.pitch_salience.dmean2'
p53
aS'lowLevel.scvalleys.var.3'
p54
aS'lowLevel.mfcc.dmean2.11'
p55
aS'tonal.hpcp_entropy.dmean2'
p56
aS'lowLevel.scvalleys.dvar2.3'
p57
aS'tonal.hpcp.min.17'
p58
aS'lowLevel.melbands_flatness_db.dmean2'
p59
aS'lowLevel.melbands_skewness.dvar'
p60
aaa(lp61
S'keys1'
p62
a(lp63
S'dynamic.larm.max'
p64
aS'lowLevel.spectral_rms.max'
p65
aS'lowLevel.spectral_energy.max'
p66
aS'lowLevel.scvalleys.min.0'
p67
aS'rhythm.beats_loudness.dmean2'
p68
aS'temporal.maxDerBeforeMax'
p69
aS'dynamic.leq.max'
p70
aS'dynamic.loudness.max'
p71
aS'lowLevel.spectral_rms.dmean2'
p72
aS'rhythm.beats_loudness.dmean'
p73
aS'dynamic.rms.max'
p74
aS'lowLevel.sccoeffs.dmean.5'
p75
aS'tonal.hpcp.kurt.10'
p76
aS'lowLevel.sccoeffs.dvar2.5'
p77
aS'dynamic.dynamic_complexity.var'
p78
aaa(lp79
S'guitar2'
p80
a(lp81
S'lowLevel.spectral_energyband_middle_low.max'
p82
aS'lowLevel.spectral_energyband_middle_low.dvar2'
p83
aS'dynamic.rms.dvar'
p84
aS'lowLevel.scvalleys.max.0'
p85
aS'lowLevel.barkbands.dmean2.4'
p86
aS'lowLevel.spectral_energy.dvar2'
p87
aS'lowLevel.barkbands.max.4'
p88
aS'lowLevel.spectral_energyband_middle_low.dmean2'
p89
aS'lowLevel.spectral_energyband_middle_low.dmean'
p90
aS'dynamic.loudness.dvar2'
p91
aS'lowLevel.spectral_flux.var'
p92
aS'lowLevel.barkbands.dmean.4'
p93
aS'lowLevel.spectral_decrease.skew'
p94
aS'dynamic.larm.skew'
p95
aS'dynamic.loudness.dmean2'
p96
aS'lowLevel.barkbands.stdev.5'
p97
aS'dynamic.rms.dvar2'
p98
aS'lowLevel.spectral_energyband_middle_low.stdev'
p99
aS'lowLevel.spectral_flux.stdev'
p100
aaa(lp101
S'keys5'
p102
a(lp103
S'dynamic.larm.max'
p104
aS'lowLevel.spectral_energy.max'
p105
aS'lowLevel.spectral_rms.max'
p106
aS'temporal.maxDerBeforeMax'
p107
aS'lowLevel.scvalleys.min.0'
p108
aS'dynamic.loudness.max'
p109
aS'rhythm.beats_loudness.dmean'
p110
aS'dynamic.leq.max'
p111
aS'tonal.hpcp.kurt.10'
p112
aS'dynamic.rms.max'
p113
aS'rhythm.beats_loudness.dmean2'
p114
aS'rhythm.beats_loudness.stdev'
p115
aS'lowLevel.sccoeffs.dmean2.5'
p116
aS'lowLevel.barkbands.dmean.9'
p117
aS'dynamic.rms.dvar'
p118
aS'lowLevel.spectral_flux.max'
p119
aS'lowLevel.spectral_rms.dmean2'
p120
aS'dynamic.rms.dvar2'
p121
aaa(lp122
S'keys4'
p123
a(lp124
S'dynamic.larm.max'
p125
aS'lowLevel.spectral_rms.max'
p126
aS'lowLevel.spectral_energy.max'
p127
aS'lowLevel.scvalleys.min.0'
p128
aS'dynamic.leq.max'
p129
aS'dynamic.loudness.max'
p130
aS'temporal.maxDerBeforeMax'
p131
aS'dynamic.rms.max'
p132
aS'rhythm.beats_loudness.dmean'
p133
aS'lowLevel.sccoeffs.dvar2.5'
p134
aS'lowLevel.sccoeffs.dmean.5'
p135
aS'lowLevel.sccoeffs.dvar.5'
p136
aS'dynamic.rms.dvar'
p137
aS'lowLevel.sccoeffs.min.5'
p138
aS'dynamic.dynamic_complexity_loudness.stdev'
p139
aS'lowLevel.sccoeffs.dmean2.5'
p140
aS'dynamic.dynamic_complexity.var'
p141
aS'lowLevel.mfcc.skew.8'
p142
aS'tonal.hpcp.dvar2.29'
p143
aS'lowLevel.scvalleys.min.2'
p144
aS'lowLevel.spectral_flux.max'
p145
aS'tonal.hpcp.kurt.10'
p146
aS'lowLevel.barkbands.median.3'
p147
aS'dynamic.loudness_vickers.kurt'
p148
aaa(lp149
S'bass1'
p150
a(lp151
S'tonal.hpcp.dvar2.33'
p152
aS'temporal.effective_duration'
p153
aS'temporal.flatness_sfx'
p154
aS'lowLevel.barkbands.stdev.1'
p155
aS'tonal.hpcp.dvar.33'
p156
aS'lowLevel.scvalleys.max.0'
p157
aS'lowLevel.barkbands.max.2'
p158
aaa(lp159
S'keys-all5'
p160
a(lp161
S'lowLevel.spectral_rms.max'
p162
aS'lowLevel.spectral_energy.max'
p163
aS'dynamic.larm.max'
p164
aS'dynamic.rms.max'
p165
aS'dynamic.leq.max'
p166
aS'dynamic.loudness.max'
p167
aS'lowLevel.spectral_energyband_middle_low.max'
p168
aS'dynamic.loudness_vickers.max'
p169
aS'lowLevel.barkbands.stdev.12'
p170
aS'lowLevel.spectral_energyband_middle_low.var'
p171
aS'lowLevel.barkbands.max.5'
p172
aS'temporal.maxDerBeforeMax'
p173
aS'lowLevel.spectral_energyband_middle_low.stdev'
p174
aS'lowLevel.barkbands.stdev.6'
p175
aS'rhythm.beats_loudness.dmean'
p176
aS'rhythm.beats_loudness.max'
p177
aS'lowLevel.barkbands.dmean.12'
p178
aS'lowLevel.barkbands.dmean2.12'
p179
aS'lowLevel.specific_sharpness.kurt'
p180
aS'lowLevel.melbands_skewness.min'
p181
aS'sfx.tristimulus.max.2'
p182
aaa(lp183
S'guitar1'
p184
a(lp185
S'lowLevel.spectral_energyband_middle_low.dvar2'
p186
aS'lowLevel.spectral_energyband_middle_low.max'
p187
aS'dynamic.rms.dvar'
p188
aS'dynamic.loudness.dvar2'
p189
aS'lowLevel.spectral_energyband_middle_low.dmean'
p190
aS'lowLevel.spectral_energyband_middle_low.dmean2'
p191
aS'lowLevel.spectral_flux.dvar'
p192
aS'lowLevel.scvalleys.max.0'
p193
aS'lowLevel.barkbands.dmean2.4'
p194
aS'dynamic.rms.dvar2'
p195
aS'lowLevel.spectral_decrease.skew'
p196
aS'lowLevel.spectral_energy.dvar2'
p197
aS'lowLevel.spectral_energyband_middle_low.mean'
p198
aS'lowLevel.spectral_energy.dvar'
p199
aS'dynamic.loudness.dmean2'
p200
aS'lowLevel.spectral_energyband_middle_low.stdev'
p201
aS'lowLevel.spectral_flux.stdev'
p202
aS'lowLevel.spectral_energy.max'
p203
aS'dynamic.rms.dmean'
p204
aS'lowLevel.spectral_energyband_low.dmean2'
p205
aS'lowLevel.barkbands.dmean2.2'
p206
aS'lowLevel.barkbands.max.3'
p207
aaa(lp208
S'bass5'
p209
a(lp210
S'temporal.effective_duration'
p211
aS'tonal.hpcp.dvar2.33'
p212
aS'temporal.flatness_sfx'
p213
aS'lowLevel.barkbands.max.2'
p214
aS'tonal.hpcp.dvar.33'
p215
aS'lowLevel.barkbands.stdev.1'
p216
aS'temporal.log_attack_time'
p217
aS'lowLevel.sccoeffs.min.0'
p218
aS'lowLevel.spectral_flux.min'
p219
aS'rhythm.beats_loudness.median'
p220
aS'rhythm.first_peak_spread.median'
p221
aS'lowLevel.scvalleys.min.3'
p222
aS'lowLevel.pitch.max'
p223
aaa(lp224
S'keys-all4'
p225
a(lp226
S'lowLevel.spectral_rms.max'
p227
aS'lowLevel.spectral_energy.max'
p228
aS'dynamic.larm.max'
p229
aS'dynamic.rms.max'
p230
aS'dynamic.loudness.max'
p231
aS'dynamic.leq.max'
p232
aS'lowLevel.spectral_energyband_middle_low.max'
p233
aS'dynamic.loudness_vickers.max'
p234
aS'temporal.maxDerBeforeMax'
p235
aS'lowLevel.barkbands.stdev.12'
p236
aS'lowLevel.spectral_energyband_middle_low.stdev'
p237
aS'lowLevel.barkbands.max.5'
p238
aS'lowLevel.spectral_rms.dmean2'
p239
aS'lowLevel.barkbands.dmean2.9'
p240
aS'lowLevel.barkbands.dmean.9'
p241
aaa(lp242
S'keys3'
p243
a(lp244
S'dynamic.larm.max'
p245
aS'lowLevel.scvalleys.min.0'
p246
aS'lowLevel.spectral_energy.max'
p247
aS'lowLevel.spectral_rms.max'
p248
aS'dynamic.leq.max'
p249
aS'dynamic.rms.max'
p250
aS'dynamic.loudness.max'
p251
aS'dynamic.dynamic_complexity.stdev'
p252
aS'dynamic.rms.dvar'
p253
aS'lowLevel.sccoeffs.dvar.5'
p254
aS'lowLevel.sccoeffs.dmean.5'
p255
aS'tonal.hpcp.kurt.10'
p256
aS'rhythm.beats_loudness.dmean2'
p257
aS'temporal.maxDerBeforeMax'
p258
aS'tonal.hpcp.skew.10'
p259
aS'tonal.hpcp.dvar.29'
p260
aS'dynamic.rms.dvar2'
p261
aS'lowLevel.spectral_energyband_middle_low.mean'
p262
aS'tonal.hpcp.dvar2.29'
p263
aS'lowLevel.spectral_flux.max'
p264
aS'rhythm.beats_loudness.max'
p265
aS'dynamic.rms.dmean'
p266
aS'rhythm.beats_loudness.dmean'
p267
aS'lowLevel.spectral_rms.dmean2'
p268
aS'dynamic.dynamic_complexity.median'
p269
aS'tonal.hpcp.dvar.24'
p270
aS'lowLevel.scvalleys.mean.2'
p271
aS'lowLevel.dissonance.stdev'
p272
aaa(lp273
S'guitar5'
p274
a(lp275
S'lowLevel.spectral_energyband_middle_low.dvar2'
p276
aS'lowLevel.spectral_energyband_middle_low.max'
p277
aS'dynamic.rms.dvar'
p278
aS'dynamic.loudness.dvar2'
p279
aS'lowLevel.spectral_energyband_middle_low.dmean'
p280
aS'lowLevel.scvalleys.max.0'
p281
aS'dynamic.loudness.dvar'
p282
aS'lowLevel.spectral_decrease.skew'
p283
aS'lowLevel.spectral_flux.dvar'
p284
aS'lowLevel.spectral_energy.dvar2'
p285
aS'lowLevel.barkbands.max.4'
p286
aS'lowLevel.spectral_flux.stdev'
p287
aS'lowLevel.barkbands.dmean2.2'
p288
aS'lowLevel.spectral_energyband_low.dmean2'
p289
aS'lowLevel.spectral_energyband_middle_low.dmean2'
p290
aS'dynamic.rms.dvar2'
p291
aS'lowLevel.barkbands.dmean2.4'
p292
aS'lowLevel.spectral_flux.var'
p293
aS'dynamic.loudness_vickers.skew'
p294
aS'lowLevel.barkbands.stdev.5'
p295
aS'dynamic.loudness.dmean'
p296
aS'dynamic.larm.skew'
p297
aS'lowLevel.spectral_energyband_middle_low.stdev'
p298
aS'lowLevel.spectral_flux.dmean'
p299
aS'lowLevel.spectral_energy.dvar'
p300
aS'dynamic.loudness.dmean2'
p301
aS'dynamic.rms.dmean'
p302
aS'lowLevel.barkbands.dmean.4'
p303
aaa(lp304
S'bass4'
p305
a(lp306
S'temporal.effective_duration'
p307
aS'tonal.hpcp.dvar2.33'
p308
aS'tonal.hpcp.dvar.33'
p309
aS'lowLevel.barkbands.max.2'
p310
aS'lowLevel.barkbands.stdev.1'
p311
aS'rhythm.first_peak_spread.median'
p312
aS'temporal.log_attack_time'
p313
aS'lowLevel.mfcc.kurt.11'
p314
aS'rhythm.first_peak_spread.min'
p315
aaa(lp316
S'bass2'
p317
a(lp318
S'temporal.effective_duration'
p319
aS'tonal.hpcp.dvar2.33'
p320
aS'temporal.flatness_sfx'
p321
aS'tonal.hpcp.dvar.33'
p322
aS'lowLevel.barkbands.max.2'
p323
aS'rhythm.beats_loudness.median'
p324
aS'lowLevel.barkbands_skewness.skew'
p325
aS'rhythm.first_peak_spread.mean'
p326
aS'rhythm.first_peak_spread.max'
p327
aS'lowLevel.barkbands.stdev.1'
p328
aS'lowLevel.mfcc.min.2'
p329
aS'lowLevel.mfcc.median.10'
p330
aS'rhythm.beats_loudness.stdev'
p331
aaa(lp332
S'guitar4'
p333
a(lp334
S'lowLevel.spectral_energyband_middle_low.max'
p335
aS'lowLevel.spectral_energyband_middle_low.dvar2'
p336
aS'dynamic.rms.dvar'
p337
aS'dynamic.loudness.dvar2'
p338
aS'lowLevel.spectral_flux.dvar'
p339
aS'lowLevel.spectral_energyband_middle_low.stdev'
p340
aS'dynamic.larm.skew'
p341
aS'lowLevel.spectral_energyband_middle_low.dmean'
p342
aS'lowLevel.spectral_energyband_middle_low.dmean2'
p343
aS'lowLevel.spectral_energy.dvar2'
p344
aS'dynamic.rms.dvar2'
p345
aS'lowLevel.spectral_decrease.skew'
p346
aS'lowLevel.scvalleys.max.0'
p347
aS'lowLevel.mfcc.dmean.12'
p348
aS'lowLevel.spectral_energyband_low.dmean2'
p349
aS'lowLevel.spectral_flux.dmean'
p350
aS'lowLevel.barkbands.max.4'
p351
aS'lowLevel.barkbands.dmean2.2'
p352
aS'lowLevel.mfcc.dmean2.2'
p353
aS'lowLevel.sccoeffs.dmean.3'
p354
aS'dynamic.loudness.dmean2'
p355
aS'lowLevel.spectral_flux.var'
p356
aS'lowLevel.hfc.dvar'
p357
aS'lowLevel.spectral_strongpeak.dvar'
p358
aS'tonal.hpcp.max.33'
p359
aS'lowLevel.spectral_energyband_middle_low.dvar'
p360
aS'dynamic.loudness.dmean'
p361
aaa(lp362
S'keys-all1'
p363
a(lp364
S'lowLevel.spectral_rms.max'
p365
aS'lowLevel.spectral_energy.max'
p366
aS'dynamic.larm.max'
p367
aS'dynamic.rms.max'
p368
aS'dynamic.loudness.max'
p369
aS'dynamic.leq.max'
p370
aS'lowLevel.spectral_energyband_middle_low.max'
p371
aS'dynamic.loudness_vickers.max'
p372
aS'lowLevel.barkbands.stdev.12'
p373
aS'lowLevel.barkbands.max.5'
p374
aS'lowLevel.spectral_energyband_middle_low.stdev'
p375
aS'temporal.maxDerBeforeMax'
p376
aS'lowLevel.spectral_energyband_middle_low.var'
p377
aS'lowLevel.barkbands.stdev.6'
p378
aS'rhythm.beats_loudness.max'
p379
aS'lowLevel.specific_sharpness.kurt'
p380
aS'lowLevel.barkbands.mean.12'
p381
aaa(lp382
S'vocal1'
p383
a(lp384
S'dynamic.larm.dvar'
p385
aS'lowLevel.sccoeffs.stdev.1'
p386
aS'lowLevel.sccoeffs.var.1'
p387
aS'dynamic.larm.dvar2'
p388
aS'lowLevel.pitch_salience.dmean'
p389
aS'rhythm.beats_loudness.stdev'
p390
aS'lowLevel.spectral_flux.kurt'
p391
aaa(lp392
S'vocal5'
p393
a(lp394
S'dynamic.larm.dvar'
p395
aS'lowLevel.sccoeffs.var.1'
p396
aS'lowLevel.sccoeffs.stdev.1'
p397
aS'dynamic.larm.dvar2'
p398
aS'rhythm.beats_loudness.dvar'
p399
aS'rhythm.beats_loudness.stdev'
p400
aS'rhythm.beats_loudness.max'
p401
aS'lowLevel.pitch_salience.dmean'
p402
aS'rhythm.beats_loudness.var'
p403
aS'lowLevel.scvalleys.dvar2.3'
p404
aS'lowLevel.pitch_salience.dmean2'
p405
aaa(lp406
S'vocal3'
p407
a(lp408
S'dynamic.larm.dvar'
p409
aS'lowLevel.sccoeffs.stdev.1'
p410
aS'lowLevel.sccoeffs.var.1'
p411
aS'rhythm.beats_loudness.var'
p412
aS'lowLevel.melbands_flatness_db.max'
p413
aS'rhythm.beats_loudness.stdev'
p414
aS'dynamic.larm.dvar2'
p415
aS'rhythm.beats_loudness.dvar'
p416
aS'rhythm.beats_loudness.max'
p417
aS'lowLevel.melbands_skewness.dvar'
p418
aS'lowLevel.sccoeffs.max.1'
p419
aaa(lp420
S'keys-all3'
p421
a(lp422
S'lowLevel.spectral_energy.max'
p423
aS'dynamic.larm.max'
p424
aS'lowLevel.spectral_rms.max'
p425
aS'dynamic.leq.max'
p426
aS'dynamic.loudness.max'
p427
aS'dynamic.rms.max'
p428
aS'lowLevel.spectral_energyband_middle_low.max'
p429
aS'dynamic.loudness_vickers.max'
p430
aS'lowLevel.barkbands.max.5'
p431
aS'lowLevel.spectral_energyband_middle_low.stdev'
p432
aS'lowLevel.barkbands.stdev.12'
p433
aS'temporal.maxDerBeforeMax'
p434
aS'lowLevel.barkbands.stdev.6'
p435
aS'lowLevel.spectral_energyband_middle_low.var'
p436
aS'rhythm.beats_loudness.stdev'
p437
aS'lowLevel.barkbands.max.6'
p438
aS'lowLevel.barkbands.dmean2.12'
p439
aS'tonal.hpcp.dvar.5'
p440
aS'lowLevel.barkbands.dmean.12'
p441
aS'tonal.hpcp.dvar2.25'
p442
aS'tonal.hpcp.dvar2.29'
p443
aS'dynamic.rms.dmean2'
p444
aS'rhythm.beats_loudness.min'
p445
aS'rhythm.beats_loudness_band_ratio.dmean2.2'
p446
aaa(lp447
S'bass3'
p448
a(lp449
S'temporal.effective_duration'
p450
aS'tonal.hpcp.dvar2.33'
p451
aS'lowLevel.spectral_energyband_low.mean'
p452
aS'lowLevel.barkbands.max.2'
p453
aS'lowLevel.scvalleys.max.0'
p454
aS'lowLevel.barkbands.stdev.1'
p455
aS'dynamic.loudness.skew'
p456
aaa(lp457
S'guitar3'
p458
a(lp459
S'lowLevel.spectral_energyband_middle_low.max'
p460
aS'lowLevel.spectral_energyband_middle_low.dvar2'
p461
aS'lowLevel.spectral_decrease.skew'
p462
aS'lowLevel.scvalleys.max.0'
p463
aS'dynamic.rms.dvar'
p464
aS'lowLevel.barkbands.max.4'
p465
aS'lowLevel.spectral_energyband_middle_low.dmean2'
p466
aS'lowLevel.barkbands.dmean.4'
p467
aS'lowLevel.barkbands.dmean2.2'
p468
aS'lowLevel.spectral_flux.dmean2'
p469
aS'lowLevel.barkbands.dmean2.4'
p470
aS'lowLevel.barkbands.dmean.2'
p471
aS'lowLevel.spectral_energy.dvar'
p472
aS'lowLevel.spectral_energy.dvar2'
p473
aaa(lp474
S'vocal4'
p475
a(lp476
S'dynamic.larm.dvar'
p477
aS'lowLevel.sccoeffs.stdev.1'
p478
aS'lowLevel.sccoeffs.var.1'
p479
aS'tonal.hpcp.min.17'
p480
aS'lowLevel.melbands_flatness_db.max'
p481
aS'lowLevel.sccoeffs.var.2'
p482
aaatp483
Rp484
.