ccollections
OrderedDict
p0
((lp1
(lp2
S'bass3'
p3
a(lp4
I784
aI1348
aI1491
aI964
aaa(lp5
S'guitar5'
p6
a(lp7
I74
aI985
aI51
aI982
aI784
aI49
aaa(lp8
S'vocal2'
p9
a(lp10
I26
aI743
aI670
aI671
aaa(lp11
S'keys-all3'
p12
a(lp13
I993
aI939
aI65
aI215
aaatp14
Rp15
.